; Function Attrs: mustprogress nounwind uwtable
define hidden void @_ZN6hermes2vm6GCBase10moveObjectEPKNS0_6GCCellEjS4_j(ptr noundef nonnull align 8 dereferenceable(741) %this, ptr noundef %oldPtr, i32 noundef %oldSize, ptr noundef %newPtr, i32 noundef %newSize) local_unnamed_addr #0 align 2 {
entry:
  %idTracker_ = getelementptr inbounds i8, ptr %this, i64 488
  %pointerBase_ = getelementptr inbounds i8, ptr %this, i64 40
  %0 = load ptr, ptr %pointerBase_, align 8
  %1 = ptrtoint ptr %oldPtr to i64
  %2 = ptrtoint ptr %0 to i64
  %sub.i.i.i = sub i64 %1, %2
  %conv.i.i.i = trunc i64 %sub.i.i.i to i32
  %3 = ptrtoint ptr %newPtr to i64
  %sub.i.i.i1 = sub i64 %3, %2
  %conv.i.i.i2 = trunc i64 %sub.i.i.i1 to i32
  tail call void @_ZN6hermes2vm6GCBase9IDTracker10moveObjectENS0_17CompressedPointerES3_(ptr noundef nonnull align 8 dereferenceable(192) %idTracker_, i32 %conv.i.i.i, i32 %conv.i.i.i2)
  ret void
}